; Function Attrs: mustprogress nofree nounwind uwtable
define internal fastcc noundef nonnull ptr @_ZN12_GLOBAL__N_116itanium_demangle22AbstractManglingParserINS0_14ManglingParserINS_16DefaultAllocatorEEES3_E4makeINS0_8NameTypeEJRA26_KcEEEPNS0_4NodeEDpOT0_(ptr noundef nonnull align 16 captures(none) dereferenceable(4928) %0, ptr noundef nonnull align 1 dereferenceable(26) %1) unnamed_addr #20 align 2 {
  %3 = getelementptr inbounds nuw i8, ptr %0, i64 4912
  %4 = load ptr, ptr %3, align 16, !tbaa !209
  %5 = getelementptr inbounds nuw i8, ptr %4, i64 8
  %6 = load i64, ptr %5, align 8, !tbaa !211
  %7 = add i64 %6, -4048
  %8 = icmp ult i64 %7, -4080
  br i1 %8, label %9, label %_ZN12_GLOBAL__N_116DefaultAllocator8makeNodeINS_16itanium_demangle8NameTypeEJRA26_KcEEEPT_DpOT0_.exit

9:                                                ; preds = %2
  %10 = tail call noalias dereferenceable_or_null(4096) ptr @malloc(i64 noundef 4096) #32
  %11 = icmp eq ptr %10, null
  br i1 %11, label %12, label %_ZN12_GLOBAL__N_120BumpPointerAllocator4growEv.exit.i.i

12:                                               ; preds = %9
  tail call void @_ZSt9terminatev() #33
  unreachable

_ZN12_GLOBAL__N_120BumpPointerAllocator4growEv.exit.i.i: ; preds = %9
  store ptr %4, ptr %10, align 8, !tbaa !213
  %13 = getelementptr inbounds nuw i8, ptr %10, i64 8
  store i64 0, ptr %13, align 8, !tbaa !211
  store ptr %10, ptr %3, align 16, !tbaa !209
  br label %_ZN12_GLOBAL__N_116DefaultAllocator8makeNodeINS_16itanium_demangle8NameTypeEJRA26_KcEEEPT_DpOT0_.exit

_ZN12_GLOBAL__N_116DefaultAllocator8makeNodeINS_16itanium_demangle8NameTypeEJRA26_KcEEEPT_DpOT0_.exit: ; preds = %2, %_ZN12_GLOBAL__N_120BumpPointerAllocator4growEv.exit.i.i
  %14 = phi i64 [ 0, %_ZN12_GLOBAL__N_120BumpPointerAllocator4growEv.exit.i.i ], [ %6, %2 ]
  %15 = phi ptr [ %10, %_ZN12_GLOBAL__N_120BumpPointerAllocator4growEv.exit.i.i ], [ %4, %2 ]
  %16 = getelementptr inbounds nuw i8, ptr %15, i64 8
  %17 = add nsw i64 %14, 32
  store i64 %17, ptr %16, align 8, !tbaa !211
  %18 = getelementptr inbounds nuw i8, ptr %15, i64 16
  %19 = getelementptr inbounds i8, ptr %18, i64 %14
  %20 = tail call noundef i64 @strlen(ptr noundef nonnull align 1 dereferenceable(26) %1) #29
  %21 = getelementptr inbounds nuw i8, ptr %19, i64 8
  store i8 8, ptr %21, align 8, !tbaa !16
  %22 = getelementptr inbounds nuw i8, ptr %19, i64 9
  %23 = load i16, ptr %22, align 1
  %24 = and i16 %23, -4096
  %25 = or disjoint i16 %24, 1344
  store i16 %25, ptr %22, align 1
  store ptr getelementptr inbounds nuw inrange(-16, 80) (i8, ptr @_ZTVN12_GLOBAL__N_116itanium_demangle8NameTypeE, i64 16), ptr %19, align 8, !tbaa !214
  %26 = getelementptr inbounds nuw i8, ptr %19, i64 16
  store ptr %1, ptr %26, align 8, !tbaa !219
  %.sroa.2.0..sroa_idx.i.i = getelementptr inbounds nuw i8, ptr %19, i64 24
  store i64 %20, ptr %.sroa.2.0..sroa_idx.i.i, align 8, !tbaa !220
  ret ptr %19
}